; Function Attrs: nounwind uwtable
define ptr @l___private_Lean_Meta_Tactic_Grind_Intro_0__Lean_Meta_Grind_isAlreadyNorm_x3f(ptr noundef %0) local_unnamed_addr #0 {
  %2 = tail call ptr @l_Lean_Expr_cleanupAnnotations(ptr noundef %0) #6
  %3 = tail call zeroext i8 @l_Lean_Expr_isApp(ptr noundef %2) #6
  %4 = icmp eq i8 %3, 0
  br i1 %4, label %5, label %15

5:                                                ; preds = %1
  %6 = ptrtoint ptr %2 to i64
  %7 = and i64 %6, 1
  %.not23 = icmp eq i64 %7, 0
  br i1 %.not23, label %8, label %lean_dec.exit

8:                                                ; preds = %5
  %9 = load i32, ptr %2, align 4, !tbaa !4
  %10 = icmp sgt i32 %9, 1
  br i1 %10, label %11, label %13, !prof !9

11:                                               ; preds = %8
  %12 = add nsw i32 %9, -1
  store i32 %12, ptr %2, align 4, !tbaa !4
  br label %lean_dec.exit

13:                                               ; preds = %8
  %.not.i20 = icmp eq i32 %9, 0
  br i1 %.not.i20, label %lean_dec.exit, label %14

14:                                               ; preds = %13
  tail call void @lean_dec_ref_cold(ptr noundef nonnull %2) #6
  br label %lean_dec.exit

15:                                               ; preds = %1
  %16 = tail call ptr @l_Lean_Expr_appArg(ptr noundef %2, ptr noundef nonnull inttoptr (i64 1 to ptr)) #6
  %17 = tail call ptr @l_Lean_Expr_appFnCleanup(ptr noundef %2, ptr noundef nonnull inttoptr (i64 1 to ptr)) #6
  %18 = load ptr, ptr @l___private_Lean_Meta_Tactic_Grind_Intro_0__Lean_Meta_Grind_isAlreadyNorm_x3f___closed__4, align 8, !tbaa !10
  %19 = tail call zeroext i8 @l_Lean_Expr_isConstOf(ptr noundef %17, ptr noundef %18) #6
  %20 = ptrtoint ptr %17 to i64
  %21 = and i64 %20, 1
  %.not = icmp eq i64 %21, 0
  br i1 %.not, label %22, label %lean_dec.exit16

22:                                               ; preds = %15
  %23 = load i32, ptr %17, align 4, !tbaa !4
  %24 = icmp sgt i32 %23, 1
  br i1 %24, label %25, label %27, !prof !9

25:                                               ; preds = %22
  %26 = add nsw i32 %23, -1
  store i32 %26, ptr %17, align 4, !tbaa !4
  br label %lean_dec.exit16

27:                                               ; preds = %22
  %.not.i18 = icmp eq i32 %23, 0
  br i1 %.not.i18, label %lean_dec.exit16, label %28

28:                                               ; preds = %27
  tail call void @lean_dec_ref_cold(ptr noundef nonnull %17) #6
  br label %lean_dec.exit16

lean_dec.exit16:                                  ; preds = %28, %27, %25, %15
  %29 = icmp eq i8 %19, 0
  br i1 %29, label %30, label %40

30:                                               ; preds = %lean_dec.exit16
  %31 = ptrtoint ptr %16 to i64
  %32 = and i64 %31, 1
  %.not22 = icmp eq i64 %32, 0
  br i1 %.not22, label %33, label %lean_dec.exit

33:                                               ; preds = %30
  %34 = load i32, ptr %16, align 4, !tbaa !4
  %35 = icmp sgt i32 %34, 1
  br i1 %35, label %36, label %38, !prof !9

36:                                               ; preds = %33
  %37 = add nsw i32 %34, -1
  store i32 %37, ptr %16, align 4, !tbaa !4
  br label %lean_dec.exit

38:                                               ; preds = %33
  %.not.i = icmp eq i32 %34, 0
  br i1 %.not.i, label %lean_dec.exit, label %39

39:                                               ; preds = %38
  tail call void @lean_dec_ref_cold(ptr noundef nonnull %16) #6
  br label %lean_dec.exit

40:                                               ; preds = %lean_dec.exit16
  tail call void @lean_inc_heartbeat() #6
  %41 = tail call noalias ptr @mi_malloc_small(i64 noundef 16) #6
  %42 = icmp eq ptr %41, null
  br i1 %42, label %43, label %lean_alloc_ctor.exit

43:                                               ; preds = %40
  tail call void @lean_internal_panic_out_of_memory() #7
  unreachable

lean_alloc_ctor.exit:                             ; preds = %40
  %44 = getelementptr inbounds nuw i8, ptr %41, i64 4
  store i32 1, ptr %41, align 4, !tbaa !4
  store i32 16842768, ptr %44, align 4
  %45 = getelementptr inbounds nuw i8, ptr %41, i64 8
  store ptr %16, ptr %45, align 8, !tbaa !10
  br label %lean_dec.exit

lean_dec.exit:                                    ; preds = %30, %36, %38, %39, %5, %11, %13, %14, %lean_alloc_ctor.exit
  %.0 = phi ptr [ %41, %lean_alloc_ctor.exit ], [ inttoptr (i64 1 to ptr), %14 ], [ inttoptr (i64 1 to ptr), %13 ], [ inttoptr (i64 1 to ptr), %11 ], [ inttoptr (i64 1 to ptr), %5 ], [ inttoptr (i64 1 to ptr), %39 ], [ inttoptr (i64 1 to ptr), %38 ], [ inttoptr (i64 1 to ptr), %36 ], [ inttoptr (i64 1 to ptr), %30 ]
  ret ptr %.0
}